target datalayout = "e-m:e-p270:32:32-p271:32:32-p272:64:64-i64:64-i128:128-f80:128-n8:16:32:64-S128"
target triple = "x86_64-pc-linux-gnu"

%struct.SM4_KEY_st = type { [32 x i32] }

@ossl_sm4_set_key.FK = internal constant [4 x i32] [i32 -1548633402, i32 1453994832, i32 1736282519, i32 -1301273892], align 16

; Function Attrs: inlinehint nounwind uwtable
define internal i32 @rotl(i32 noundef %0, i8 noundef zeroext %1) #2 {
  %3 = alloca i32, align 4
  %4 = alloca i8, align 1
  store i32 %0, ptr %3, align 4, !tbaa !10
  store i8 %1, ptr %4, align 1, !tbaa !14
  %5 = load i32, ptr %3, align 4, !tbaa !10
  %6 = load i8, ptr %4, align 1, !tbaa !14
  %7 = zext i8 %6 to i32
  %8 = shl i32 %5, %7
  %9 = load i32, ptr %3, align 4, !tbaa !10
  %10 = load i8, ptr %4, align 1, !tbaa !14
  %11 = zext i8 %10 to i32
  %12 = sub nsw i32 32, %11
  %13 = lshr i32 %9, %12
  %14 = or i32 %8, %13
  ret i32 %14
}

; Function Attrs: inlinehint nounwind uwtable
define internal i32 @SM4_T_non_lin_sub(i32 noundef %0) #2 {
  %2 = alloca i32, align 4
  %3 = alloca i32, align 4
  store i32 %0, ptr %2, align 4, !tbaa !10
  call void @llvm.lifetime.start.p0(i64 4, ptr %3) #3
  store i32 0, ptr %3, align 4, !tbaa !10
  %4 = load i32, ptr %2, align 4, !tbaa !10
  %5 = lshr i32 %4, 24
  %6 = trunc i32 %5 to i8
  %7 = zext i8 %6 to i64
  %8 = getelementptr inbounds nuw [256 x i8], ptr @SM4_S, i64 0, i64 %7
  %9 = load i8, ptr %8, align 1, !tbaa !14
  %10 = zext i8 %9 to i32
  %11 = shl i32 %10, 24
  %12 = load i32, ptr %3, align 4, !tbaa !10
  %13 = or i32 %12, %11
  store i32 %13, ptr %3, align 4, !tbaa !10
  %14 = load i32, ptr %2, align 4, !tbaa !10
  %15 = lshr i32 %14, 16
  %16 = trunc i32 %15 to i8
  %17 = zext i8 %16 to i64
  %18 = getelementptr inbounds nuw [256 x i8], ptr @SM4_S, i64 0, i64 %17
  %19 = load i8, ptr %18, align 1, !tbaa !14
  %20 = zext i8 %19 to i32
  %21 = shl i32 %20, 16
  %22 = load i32, ptr %3, align 4, !tbaa !10
  %23 = or i32 %22, %21
  store i32 %23, ptr %3, align 4, !tbaa !10
  %24 = load i32, ptr %2, align 4, !tbaa !10
  %25 = lshr i32 %24, 8
  %26 = trunc i32 %25 to i8
  %27 = zext i8 %26 to i64
  %28 = getelementptr inbounds nuw [256 x i8], ptr @SM4_S, i64 0, i64 %27
  %29 = load i8, ptr %28, align 1, !tbaa !14
  %30 = zext i8 %29 to i32
  %31 = shl i32 %30, 8
  %32 = load i32, ptr %3, align 4, !tbaa !10
  %33 = or i32 %32, %31
  store i32 %33, ptr %3, align 4, !tbaa !10
  %34 = load i32, ptr %2, align 4, !tbaa !10
  %35 = trunc i32 %34 to i8
  %36 = zext i8 %35 to i64
  %37 = getelementptr inbounds nuw [256 x i8], ptr @SM4_S, i64 0, i64 %36
  %38 = load i8, ptr %37, align 1, !tbaa !14
  %39 = zext i8 %38 to i32
  %40 = load i32, ptr %3, align 4, !tbaa !10
  %41 = or i32 %40, %39
  store i32 %41, ptr %3, align 4, !tbaa !10
  %42 = load i32, ptr %3, align 4, !tbaa !10
  call void @llvm.lifetime.end.p0(i64 4, ptr %3) #3
  ret i32 %42
}

; Function Attrs: inlinehint nounwind uwtable
define internal i32 @SM4_key_sub(i32 noundef %0) #2 {
  %2 = alloca i32, align 4
  %3 = alloca i32, align 4
  store i32 %0, ptr %2, align 4, !tbaa !10
  call void @llvm.lifetime.start.p0(i64 4, ptr %3) #3
  %4 = load i32, ptr %2, align 4, !tbaa !10
  %5 = call i32 @SM4_T_non_lin_sub(i32 noundef %4)
  store i32 %5, ptr %3, align 4, !tbaa !10
  %6 = load i32, ptr %3, align 4, !tbaa !10
  %7 = load i32, ptr %3, align 4, !tbaa !10
  %8 = call i32 @rotl(i32 noundef %7, i8 noundef zeroext 13)
  %9 = xor i32 %6, %8
  %10 = load i32, ptr %3, align 4, !tbaa !10
  %11 = call i32 @rotl(i32 noundef %10, i8 noundef zeroext 23)
  %12 = xor i32 %9, %11
  call void @llvm.lifetime.end.p0(i64 4, ptr %3) #3
  ret i32 %12
}

; Function Attrs: inlinehint nounwind uwtable
define internal i32 @load_u32_be(ptr noundef %0, i32 noundef %1) #2 {
  %3 = alloca ptr, align 8
  %4 = alloca i32, align 4
  store ptr %0, ptr %3, align 8, !tbaa !3
  store i32 %1, ptr %4, align 4, !tbaa !10
  %5 = load ptr, ptr %3, align 8, !tbaa !3
  %6 = load i32, ptr %4, align 4, !tbaa !10
  %7 = mul i32 4, %6
  %8 = zext i32 %7 to i64
  %9 = getelementptr inbounds nuw i8, ptr %5, i64 %8
  %10 = load i8, ptr %9, align 1, !tbaa !14
  %11 = zext i8 %10 to i32
  %12 = shl i32 %11, 24
  %13 = load ptr, ptr %3, align 8, !tbaa !3
  %14 = load i32, ptr %4, align 4, !tbaa !10
  %15 = mul i32 4, %14
  %16 = add i32 %15, 1
  %17 = zext i32 %16 to i64
  %18 = getelementptr inbounds nuw i8, ptr %13, i64 %17
  %19 = load i8, ptr %18, align 1, !tbaa !14
  %20 = zext i8 %19 to i32
  %21 = shl i32 %20, 16
  %22 = or i32 %12, %21
  %23 = load ptr, ptr %3, align 8, !tbaa !3
  %24 = load i32, ptr %4, align 4, !tbaa !10
  %25 = mul i32 4, %24
  %26 = add i32 %25, 2
  %27 = zext i32 %26 to i64
  %28 = getelementptr inbounds nuw i8, ptr %23, i64 %27
  %29 = load i8, ptr %28, align 1, !tbaa !14
  %30 = zext i8 %29 to i32
  %31 = shl i32 %30, 8
  %32 = or i32 %22, %31
  %33 = load ptr, ptr %3, align 8, !tbaa !3
  %34 = load i32, ptr %4, align 4, !tbaa !10
  %35 = mul i32 4, %34
  %36 = add i32 %35, 3
  %37 = zext i32 %36 to i64
  %38 = getelementptr inbounds nuw i8, ptr %33, i64 %37
  %39 = load i8, ptr %38, align 1, !tbaa !14
  %40 = zext i8 %39 to i32
  %41 = or i32 %32, %40
  ret i32 %41
}

; Function Attrs: nounwind uwtable
define i32 @ossl_sm4_set_key(ptr noundef %0, ptr noundef %1) #0 {
  %3 = alloca ptr, align 8
  %4 = alloca ptr, align 8
  %5 = alloca [4 x i32], align 16
  %6 = alloca i32, align 4
  store ptr %0, ptr %3, align 8, !tbaa !3
  store ptr %1, ptr %4, align 8, !tbaa !8
  call void @llvm.lifetime.start.p0(i64 16, ptr %5) #3
  call void @llvm.lifetime.start.p0(i64 4, ptr %6) #3
  %7 = load ptr, ptr %3, align 8, !tbaa !3
  %8 = call i32 @load_u32_be(ptr noundef %7, i32 noundef 0)
  %9 = load i32, ptr @ossl_sm4_set_key.FK, align 16, !tbaa !10
  %10 = xor i32 %8, %9
  %11 = getelementptr inbounds [4 x i32], ptr %5, i64 0, i64 0
  store i32 %10, ptr %11, align 16, !tbaa !10
  %12 = load ptr, ptr %3, align 8, !tbaa !3
  %13 = call i32 @load_u32_be(ptr noundef %12, i32 noundef 1)
  %14 = load i32, ptr getelementptr inbounds ([4 x i32], ptr @ossl_sm4_set_key.FK, i64 0, i64 1), align 4, !tbaa !10
  %15 = xor i32 %13, %14
  %16 = getelementptr inbounds [4 x i32], ptr %5, i64 0, i64 1
  store i32 %15, ptr %16, align 4, !tbaa !10
  %17 = load ptr, ptr %3, align 8, !tbaa !3
  %18 = call i32 @load_u32_be(ptr noundef %17, i32 noundef 2)
  %19 = load i32, ptr getelementptr inbounds ([4 x i32], ptr @ossl_sm4_set_key.FK, i64 0, i64 2), align 8, !tbaa !10
  %20 = xor i32 %18, %19
  %21 = getelementptr inbounds [4 x i32], ptr %5, i64 0, i64 2
  store i32 %20, ptr %21, align 8, !tbaa !10
  %22 = load ptr, ptr %3, align 8, !tbaa !3
  %23 = call i32 @load_u32_be(ptr noundef %22, i32 noundef 3)
  %24 = load i32, ptr getelementptr inbounds ([4 x i32], ptr @ossl_sm4_set_key.FK, i64 0, i64 3), align 4, !tbaa !10
  %25 = xor i32 %23, %24
  %26 = getelementptr inbounds [4 x i32], ptr %5, i64 0, i64 3
  store i32 %25, ptr %26, align 4, !tbaa !10
  store i32 0, ptr %6, align 4, !tbaa !10
  br label %27

27:                                               ; preds = %133, %2
  %28 = load i32, ptr %6, align 4, !tbaa !10
  %29 = icmp slt i32 %28, 32
  br i1 %29, label %30, label %136

30:                                               ; preds = %27
  %31 = getelementptr inbounds [4 x i32], ptr %5, i64 0, i64 1
  %32 = load i32, ptr %31, align 4, !tbaa !10
  %33 = getelementptr inbounds [4 x i32], ptr %5, i64 0, i64 2
  %34 = load i32, ptr %33, align 8, !tbaa !10
  %35 = xor i32 %32, %34
  %36 = getelementptr inbounds [4 x i32], ptr %5, i64 0, i64 3
  %37 = load i32, ptr %36, align 4, !tbaa !10
  %38 = xor i32 %35, %37
  %39 = load i32, ptr %6, align 4, !tbaa !10
  %40 = sext i32 %39 to i64
  %41 = getelementptr inbounds [32 x i32], ptr @ossl_sm4_set_key.CK, i64 0, i64 %40
  %42 = load i32, ptr %41, align 4, !tbaa !10
  %43 = xor i32 %38, %42
  %44 = call i32 @SM4_key_sub(i32 noundef %43)
  %45 = getelementptr inbounds [4 x i32], ptr %5, i64 0, i64 0
  %46 = load i32, ptr %45, align 16, !tbaa !10
  %47 = xor i32 %46, %44
  store i32 %47, ptr %45, align 16, !tbaa !10
  %48 = getelementptr inbounds [4 x i32], ptr %5, i64 0, i64 2
  %49 = load i32, ptr %48, align 8, !tbaa !10
  %50 = getelementptr inbounds [4 x i32], ptr %5, i64 0, i64 3
  %51 = load i32, ptr %50, align 4, !tbaa !10
  %52 = xor i32 %49, %51
  %53 = getelementptr inbounds [4 x i32], ptr %5, i64 0, i64 0
  %54 = load i32, ptr %53, align 16, !tbaa !10
  %55 = xor i32 %52, %54
  %56 = load i32, ptr %6, align 4, !tbaa !10
  %57 = add nsw i32 %56, 1
  %58 = sext i32 %57 to i64
  %59 = getelementptr inbounds [32 x i32], ptr @ossl_sm4_set_key.CK, i64 0, i64 %58
  %60 = load i32, ptr %59, align 4, !tbaa !10
  %61 = xor i32 %55, %60
  %62 = call i32 @SM4_key_sub(i32 noundef %61)
  %63 = getelementptr inbounds [4 x i32], ptr %5, i64 0, i64 1
  %64 = load i32, ptr %63, align 4, !tbaa !10
  %65 = xor i32 %64, %62
  store i32 %65, ptr %63, align 4, !tbaa !10
  %66 = getelementptr inbounds [4 x i32], ptr %5, i64 0, i64 3
  %67 = load i32, ptr %66, align 4, !tbaa !10
  %68 = getelementptr inbounds [4 x i32], ptr %5, i64 0, i64 0
  %69 = load i32, ptr %68, align 16, !tbaa !10
  %70 = xor i32 %67, %69
  %71 = getelementptr inbounds [4 x i32], ptr %5, i64 0, i64 1
  %72 = load i32, ptr %71, align 4, !tbaa !10
  %73 = xor i32 %70, %72
  %74 = load i32, ptr %6, align 4, !tbaa !10
  %75 = add nsw i32 %74, 2
  %76 = sext i32 %75 to i64
  %77 = getelementptr inbounds [32 x i32], ptr @ossl_sm4_set_key.CK, i64 0, i64 %76
  %78 = load i32, ptr %77, align 4, !tbaa !10
  %79 = xor i32 %73, %78
  %80 = call i32 @SM4_key_sub(i32 noundef %79)
  %81 = getelementptr inbounds [4 x i32], ptr %5, i64 0, i64 2
  %82 = load i32, ptr %81, align 8, !tbaa !10
  %83 = xor i32 %82, %80
  store i32 %83, ptr %81, align 8, !tbaa !10
  %84 = getelementptr inbounds [4 x i32], ptr %5, i64 0, i64 0
  %85 = load i32, ptr %84, align 16, !tbaa !10
  %86 = getelementptr inbounds [4 x i32], ptr %5, i64 0, i64 1
  %87 = load i32, ptr %86, align 4, !tbaa !10
  %88 = xor i32 %85, %87
  %89 = getelementptr inbounds [4 x i32], ptr %5, i64 0, i64 2
  %90 = load i32, ptr %89, align 8, !tbaa !10
  %91 = xor i32 %88, %90
  %92 = load i32, ptr %6, align 4, !tbaa !10
  %93 = add nsw i32 %92, 3
  %94 = sext i32 %93 to i64
  %95 = getelementptr inbounds [32 x i32], ptr @ossl_sm4_set_key.CK, i64 0, i64 %94
  %96 = load i32, ptr %95, align 4, !tbaa !10
  %97 = xor i32 %91, %96
  %98 = call i32 @SM4_key_sub(i32 noundef %97)
  %99 = getelementptr inbounds [4 x i32], ptr %5, i64 0, i64 3
  %100 = load i32, ptr %99, align 4, !tbaa !10
  %101 = xor i32 %100, %98
  store i32 %101, ptr %99, align 4, !tbaa !10
  %102 = getelementptr inbounds [4 x i32], ptr %5, i64 0, i64 0
  %103 = load i32, ptr %102, align 16, !tbaa !10
  %104 = load ptr, ptr %4, align 8, !tbaa !8
  %105 = getelementptr inbounds nuw %struct.SM4_KEY_st, ptr %104, i32 0, i32 0
  %106 = load i32, ptr %6, align 4, !tbaa !10
  %107 = sext i32 %106 to i64
  %108 = getelementptr inbounds [32 x i32], ptr %105, i64 0, i64 %107
  store i32 %103, ptr %108, align 4, !tbaa !10
  %109 = getelementptr inbounds [4 x i32], ptr %5, i64 0, i64 1
  %110 = load i32, ptr %109, align 4, !tbaa !10
  %111 = load ptr, ptr %4, align 8, !tbaa !8
  %112 = getelementptr inbounds nuw %struct.SM4_KEY_st, ptr %111, i32 0, i32 0
  %113 = load i32, ptr %6, align 4, !tbaa !10
  %114 = add nsw i32 %113, 1
  %115 = sext i32 %114 to i64
  %116 = getelementptr inbounds [32 x i32], ptr %112, i64 0, i64 %115
  store i32 %110, ptr %116, align 4, !tbaa !10
  %117 = getelementptr inbounds [4 x i32], ptr %5, i64 0, i64 2
  %118 = load i32, ptr %117, align 8, !tbaa !10
  %119 = load ptr, ptr %4, align 8, !tbaa !8
  %120 = getelementptr inbounds nuw %struct.SM4_KEY_st, ptr %119, i32 0, i32 0
  %121 = load i32, ptr %6, align 4, !tbaa !10
  %122 = add nsw i32 %121, 2
  %123 = sext i32 %122 to i64
  %124 = getelementptr inbounds [32 x i32], ptr %120, i64 0, i64 %123
  store i32 %118, ptr %124, align 4, !tbaa !10
  %125 = getelementptr inbounds [4 x i32], ptr %5, i64 0, i64 3
  %126 = load i32, ptr %125, align 4, !tbaa !10
  %127 = load ptr, ptr %4, align 8, !tbaa !8
  %128 = getelementptr inbounds nuw %struct.SM4_KEY_st, ptr %127, i32 0, i32 0
  %129 = load i32, ptr %6, align 4, !tbaa !10
  %130 = add nsw i32 %129, 3
  %131 = sext i32 %130 to i64
  %132 = getelementptr inbounds [32 x i32], ptr %128, i64 0, i64 %131
  store i32 %126, ptr %132, align 4, !tbaa !10
  br label %133

133:                                              ; preds = %30
  %134 = load i32, ptr %6, align 4, !tbaa !10
  %135 = add nsw i32 %134, 4
  store i32 %135, ptr %6, align 4, !tbaa !10
  br label %27, !llvm.loop !12

136:                                              ; preds = %27
  call void @llvm.lifetime.end.p0(i64 4, ptr %6) #3
  call void @llvm.lifetime.end.p0(i64 16, ptr %5) #3
  ret i32 1
}