; Function Attrs: nofree norecurse nosync nounwind memory(argmem: readwrite) uwtable
define noundef i32 @ossl_sm4_set_key(ptr noundef readonly captures(none) %0, ptr noundef writeonly captures(none) %1) local_unnamed_addr #0 {
  %3 = load i8, ptr %0, align 1, !tbaa !3
  %4 = zext i8 %3 to i32
  %5 = shl nuw i32 %4, 24
  %6 = getelementptr inbounds nuw i8, ptr %0, i64 1
  %7 = load i8, ptr %6, align 1, !tbaa !3
  %8 = zext i8 %7 to i32
  %9 = shl nuw nsw i32 %8, 16
  %10 = or disjoint i32 %9, %5
  %11 = getelementptr inbounds nuw i8, ptr %0, i64 2
  %12 = load i8, ptr %11, align 1, !tbaa !3
  %13 = zext i8 %12 to i32
  %14 = shl nuw nsw i32 %13, 8
  %15 = or disjoint i32 %10, %14
  %16 = getelementptr inbounds nuw i8, ptr %0, i64 3
  %17 = load i8, ptr %16, align 1, !tbaa !3
  %18 = zext i8 %17 to i32
  %19 = or disjoint i32 %15, %18
  %20 = xor i32 %19, -1548633402
  %21 = getelementptr inbounds nuw i8, ptr %0, i64 4
  %22 = load i8, ptr %21, align 1, !tbaa !3
  %23 = zext i8 %22 to i32
  %24 = shl nuw i32 %23, 24
  %25 = getelementptr inbounds nuw i8, ptr %0, i64 5
  %26 = load i8, ptr %25, align 1, !tbaa !3
  %27 = zext i8 %26 to i32
  %28 = shl nuw nsw i32 %27, 16
  %29 = or disjoint i32 %28, %24
  %30 = getelementptr inbounds nuw i8, ptr %0, i64 6
  %31 = load i8, ptr %30, align 1, !tbaa !3
  %32 = zext i8 %31 to i32
  %33 = shl nuw nsw i32 %32, 8
  %34 = or disjoint i32 %29, %33
  %35 = getelementptr inbounds nuw i8, ptr %0, i64 7
  %36 = load i8, ptr %35, align 1, !tbaa !3
  %37 = zext i8 %36 to i32
  %38 = or disjoint i32 %34, %37
  %39 = xor i32 %38, 1453994832
  %40 = getelementptr inbounds nuw i8, ptr %0, i64 8
  %41 = load i8, ptr %40, align 1, !tbaa !3
  %42 = zext i8 %41 to i32
  %43 = shl nuw i32 %42, 24
  %44 = getelementptr inbounds nuw i8, ptr %0, i64 9
  %45 = load i8, ptr %44, align 1, !tbaa !3
  %46 = zext i8 %45 to i32
  %47 = shl nuw nsw i32 %46, 16
  %48 = or disjoint i32 %47, %43
  %49 = getelementptr inbounds nuw i8, ptr %0, i64 10
  %50 = load i8, ptr %49, align 1, !tbaa !3
  %51 = zext i8 %50 to i32
  %52 = shl nuw nsw i32 %51, 8
  %53 = or disjoint i32 %48, %52
  %54 = getelementptr inbounds nuw i8, ptr %0, i64 11
  %55 = load i8, ptr %54, align 1, !tbaa !3
  %56 = zext i8 %55 to i32
  %57 = or disjoint i32 %53, %56
  %58 = xor i32 %57, 1736282519
  %59 = getelementptr inbounds nuw i8, ptr %0, i64 12
  %60 = load i8, ptr %59, align 1, !tbaa !3
  %61 = zext i8 %60 to i32
  %62 = shl nuw i32 %61, 24
  %63 = getelementptr inbounds nuw i8, ptr %0, i64 13
  %64 = load i8, ptr %63, align 1, !tbaa !3
  %65 = zext i8 %64 to i32
  %66 = shl nuw nsw i32 %65, 16
  %67 = or disjoint i32 %66, %62
  %68 = getelementptr inbounds nuw i8, ptr %0, i64 14
  %69 = load i8, ptr %68, align 1, !tbaa !3
  %70 = zext i8 %69 to i32
  %71 = shl nuw nsw i32 %70, 8
  %72 = or disjoint i32 %67, %71
  %73 = getelementptr inbounds nuw i8, ptr %0, i64 15
  %74 = load i8, ptr %73, align 1, !tbaa !3
  %75 = zext i8 %74 to i32
  %76 = or disjoint i32 %72, %75
  %77 = xor i32 %76, -1301273892
  br label %78

78:                                               ; preds = %2, %78
  %indvars.iv = phi i64 [ 0, %2 ], [ %indvars.iv.next, %78 ]
  %.sroa.0.036 = phi i32 [ %20, %2 ], [ %116, %78 ]
  %.sroa.9.035 = phi i32 [ %39, %2 ], [ %155, %78 ]
  %.sroa.16.034 = phi i32 [ %58, %2 ], [ %194, %78 ]
  %.sroa.23.033 = phi i32 [ %77, %2 ], [ %233, %78 ]
  %79 = getelementptr inbounds nuw [32 x i32], ptr @ossl_sm4_set_key.CK, i64 0, i64 %indvars.iv
  %80 = load i32, ptr %79, align 16, !tbaa !6
  %81 = xor i32 %.sroa.23.033, %80
  %82 = xor i32 %81, %.sroa.16.034
  %83 = xor i32 %82, %.sroa.9.035
  %84 = lshr i32 %83, 24
  %85 = zext nneg i32 %84 to i64
  %86 = getelementptr inbounds nuw [256 x i8], ptr @SM4_S, i64 0, i64 %85
  %87 = load i8, ptr %86, align 1, !tbaa !3
  %88 = zext i8 %87 to i32
  %89 = shl nuw i32 %88, 24
  %90 = lshr i32 %83, 16
  %91 = and i32 %90, 255
  %92 = zext nneg i32 %91 to i64
  %93 = getelementptr inbounds nuw [256 x i8], ptr @SM4_S, i64 0, i64 %92
  %94 = load i8, ptr %93, align 1, !tbaa !3
  %95 = zext i8 %94 to i32
  %96 = shl nuw nsw i32 %95, 16
  %97 = or disjoint i32 %96, %89
  %98 = lshr i32 %83, 8
  %99 = and i32 %98, 255
  %100 = zext nneg i32 %99 to i64
  %101 = getelementptr inbounds nuw [256 x i8], ptr @SM4_S, i64 0, i64 %100
  %102 = load i8, ptr %101, align 1, !tbaa !3
  %103 = zext i8 %102 to i32
  %104 = shl nuw nsw i32 %103, 8
  %105 = or disjoint i32 %97, %104
  %106 = and i32 %83, 255
  %107 = zext nneg i32 %106 to i64
  %108 = getelementptr inbounds nuw [256 x i8], ptr @SM4_S, i64 0, i64 %107
  %109 = load i8, ptr %108, align 1, !tbaa !3
  %110 = zext i8 %109 to i32
  %111 = or disjoint i32 %105, %110
  %112 = tail call i32 @llvm.fshl.i32(i32 %111, i32 %111, i32 13)
  %113 = tail call i32 @llvm.fshl.i32(i32 %111, i32 %111, i32 23)
  %114 = xor i32 %.sroa.0.036, %112
  %115 = xor i32 %114, %113
  %116 = xor i32 %115, %111
  %117 = or disjoint i64 %indvars.iv, 1
  %118 = getelementptr inbounds nuw [32 x i32], ptr @ossl_sm4_set_key.CK, i64 0, i64 %117
  %119 = load i32, ptr %118, align 4, !tbaa !6
  %120 = xor i32 %.sroa.23.033, %119
  %121 = xor i32 %120, %.sroa.16.034
  %122 = xor i32 %121, %116
  %123 = lshr i32 %122, 24
  %124 = zext nneg i32 %123 to i64
  %125 = getelementptr inbounds nuw [256 x i8], ptr @SM4_S, i64 0, i64 %124
  %126 = load i8, ptr %125, align 1, !tbaa !3
  %127 = zext i8 %126 to i32
  %128 = shl nuw i32 %127, 24
  %129 = lshr i32 %122, 16
  %130 = and i32 %129, 255
  %131 = zext nneg i32 %130 to i64
  %132 = getelementptr inbounds nuw [256 x i8], ptr @SM4_S, i64 0, i64 %131
  %133 = load i8, ptr %132, align 1, !tbaa !3
  %134 = zext i8 %133 to i32
  %135 = shl nuw nsw i32 %134, 16
  %136 = or disjoint i32 %135, %128
  %137 = lshr i32 %122, 8
  %138 = and i32 %137, 255
  %139 = zext nneg i32 %138 to i64
  %140 = getelementptr inbounds nuw [256 x i8], ptr @SM4_S, i64 0, i64 %139
  %141 = load i8, ptr %140, align 1, !tbaa !3
  %142 = zext i8 %141 to i32
  %143 = shl nuw nsw i32 %142, 8
  %144 = or disjoint i32 %136, %143
  %145 = and i32 %122, 255
  %146 = zext nneg i32 %145 to i64
  %147 = getelementptr inbounds nuw [256 x i8], ptr @SM4_S, i64 0, i64 %146
  %148 = load i8, ptr %147, align 1, !tbaa !3
  %149 = zext i8 %148 to i32
  %150 = or disjoint i32 %144, %149
  %151 = tail call i32 @llvm.fshl.i32(i32 %150, i32 %150, i32 13)
  %152 = tail call i32 @llvm.fshl.i32(i32 %150, i32 %150, i32 23)
  %153 = xor i32 %151, %152
  %154 = xor i32 %153, %.sroa.9.035
  %155 = xor i32 %154, %150
  %156 = or disjoint i64 %indvars.iv, 2
  %157 = getelementptr inbounds nuw [32 x i32], ptr @ossl_sm4_set_key.CK, i64 0, i64 %156
  %158 = load i32, ptr %157, align 8, !tbaa !6
  %159 = xor i32 %.sroa.23.033, %158
  %160 = xor i32 %159, %116
  %161 = xor i32 %160, %155
  %162 = lshr i32 %161, 24
  %163 = zext nneg i32 %162 to i64
  %164 = getelementptr inbounds nuw [256 x i8], ptr @SM4_S, i64 0, i64 %163
  %165 = load i8, ptr %164, align 1, !tbaa !3
  %166 = zext i8 %165 to i32
  %167 = shl nuw i32 %166, 24
  %168 = lshr i32 %161, 16
  %169 = and i32 %168, 255
  %170 = zext nneg i32 %169 to i64
  %171 = getelementptr inbounds nuw [256 x i8], ptr @SM4_S, i64 0, i64 %170
  %172 = load i8, ptr %171, align 1, !tbaa !3
  %173 = zext i8 %172 to i32
  %174 = shl nuw nsw i32 %173, 16
  %175 = or disjoint i32 %174, %167
  %176 = lshr i32 %161, 8
  %177 = and i32 %176, 255
  %178 = zext nneg i32 %177 to i64
  %179 = getelementptr inbounds nuw [256 x i8], ptr @SM4_S, i64 0, i64 %178
  %180 = load i8, ptr %179, align 1, !tbaa !3
  %181 = zext i8 %180 to i32
  %182 = shl nuw nsw i32 %181, 8
  %183 = or disjoint i32 %175, %182
  %184 = and i32 %161, 255
  %185 = zext nneg i32 %184 to i64
  %186 = getelementptr inbounds nuw [256 x i8], ptr @SM4_S, i64 0, i64 %185
  %187 = load i8, ptr %186, align 1, !tbaa !3
  %188 = zext i8 %187 to i32
  %189 = or disjoint i32 %183, %188
  %190 = tail call i32 @llvm.fshl.i32(i32 %189, i32 %189, i32 13)
  %191 = tail call i32 @llvm.fshl.i32(i32 %189, i32 %189, i32 23)
  %192 = xor i32 %190, %191
  %193 = xor i32 %192, %.sroa.16.034
  %194 = xor i32 %193, %189
  %195 = or disjoint i64 %indvars.iv, 3
  %196 = getelementptr inbounds nuw [32 x i32], ptr @ossl_sm4_set_key.CK, i64 0, i64 %195
  %197 = load i32, ptr %196, align 4, !tbaa !6
  %198 = xor i32 %116, %197
  %199 = xor i32 %198, %155
  %200 = xor i32 %199, %194
  %201 = lshr i32 %200, 24
  %202 = zext nneg i32 %201 to i64
  %203 = getelementptr inbounds nuw [256 x i8], ptr @SM4_S, i64 0, i64 %202
  %204 = load i8, ptr %203, align 1, !tbaa !3
  %205 = zext i8 %204 to i32
  %206 = shl nuw i32 %205, 24
  %207 = lshr i32 %200, 16
  %208 = and i32 %207, 255
  %209 = zext nneg i32 %208 to i64
  %210 = getelementptr inbounds nuw [256 x i8], ptr @SM4_S, i64 0, i64 %209
  %211 = load i8, ptr %210, align 1, !tbaa !3
  %212 = zext i8 %211 to i32
  %213 = shl nuw nsw i32 %212, 16
  %214 = or disjoint i32 %213, %206
  %215 = lshr i32 %200, 8
  %216 = and i32 %215, 255
  %217 = zext nneg i32 %216 to i64
  %218 = getelementptr inbounds nuw [256 x i8], ptr @SM4_S, i64 0, i64 %217
  %219 = load i8, ptr %218, align 1, !tbaa !3
  %220 = zext i8 %219 to i32
  %221 = shl nuw nsw i32 %220, 8
  %222 = or disjoint i32 %214, %221
  %223 = and i32 %200, 255
  %224 = zext nneg i32 %223 to i64
  %225 = getelementptr inbounds nuw [256 x i8], ptr @SM4_S, i64 0, i64 %224
  %226 = load i8, ptr %225, align 1, !tbaa !3
  %227 = zext i8 %226 to i32
  %228 = or disjoint i32 %222, %227
  %229 = tail call i32 @llvm.fshl.i32(i32 %228, i32 %228, i32 13)
  %230 = tail call i32 @llvm.fshl.i32(i32 %228, i32 %228, i32 23)
  %231 = xor i32 %229, %230
  %232 = xor i32 %231, %.sroa.23.033
  %233 = xor i32 %232, %228
  %234 = getelementptr inbounds nuw [32 x i32], ptr %1, i64 0, i64 %indvars.iv
  store i32 %116, ptr %234, align 4, !tbaa !6
  %235 = getelementptr inbounds nuw [32 x i32], ptr %1, i64 0, i64 %117
  store i32 %155, ptr %235, align 4, !tbaa !6
  %236 = getelementptr inbounds nuw [32 x i32], ptr %1, i64 0, i64 %156
  store i32 %194, ptr %236, align 4, !tbaa !6
  %237 = getelementptr inbounds nuw [32 x i32], ptr %1, i64 0, i64 %195
  store i32 %233, ptr %237, align 4, !tbaa !6
  %indvars.iv.next = add nuw nsw i64 %indvars.iv, 4
  %238 = icmp samesign ult i64 %indvars.iv, 28
  br i1 %238, label %78, label %239, !llvm.loop !8

239:                                              ; preds = %78
  ret i32 1
}